target datalayout = "e-m:e-p270:32:32-p271:32:32-p272:64:64-i64:64-i128:128-f80:128-n8:16:32:64-S128"
target triple = "x86_64-pc-linux-gnu"

%"class.llvm::SmallVectorBase" = type { ptr, i32, i32 }
%"class.llvm::FoldingSetBase" = type { ptr, i32, i32 }
%"class.llvm::iterator_range.991" = type { %"struct.clang::RedeclarableTemplateDecl::SpecIterator", %"struct.clang::RedeclarableTemplateDecl::SpecIterator" }
%"struct.clang::RedeclarableTemplateDecl::SpecIterator" = type { %"class.llvm::iterator_adaptor_base.992" }
%"class.llvm::iterator_adaptor_base.992" = type { %"struct.llvm::pointee_iterator" }
%"struct.llvm::pointee_iterator" = type { %"class.llvm::iterator_adaptor_base.994" }
%"class.llvm::iterator_adaptor_base.994" = type { ptr }
%"class.llvm::FoldingSetVector" = type { %"class.llvm::FoldingSet.996", %"class.llvm::SmallVector.998" }
%"class.llvm::FoldingSet.996" = type { %"class.llvm::FoldingSetImpl.997" }
%"class.llvm::FoldingSetImpl.997" = type { %"class.llvm::FoldingSetBase" }
%"class.llvm::SmallVector.998" = type { %"class.llvm::SmallVectorImpl.999", %"struct.llvm::SmallVectorStorage.1002" }
%"class.llvm::SmallVectorImpl.999" = type { %"class.llvm::SmallVectorTemplateBase.1000" }
%"class.llvm::SmallVectorTemplateBase.1000" = type { %"class.llvm::SmallVectorTemplateCommon.1001" }
%"class.llvm::SmallVectorTemplateCommon.1001" = type { %"class.llvm::SmallVectorBase" }
%"struct.llvm::SmallVectorStorage.1002" = type { [64 x i8] }

; Function Attrs: mustprogress nounwind uwtable
define linkonce_odr hidden void @_ZN4llvm21iterator_adaptor_baseINS_16pointee_iteratorIPPN5clang31ClassTemplateSpecializationDeclES3_EES5_St26random_access_iterator_tagS3_lS4_RS3_EC2ES5_(ptr noundef nonnull align 8 dereferenceable(8) %0, ptr noundef %1) unnamed_addr #4 comdat align 2 {
  %3 = alloca ptr, align 8
  %4 = alloca ptr, align 8
  store ptr %0, ptr %3, align 8, !tbaa !842
  store ptr %1, ptr %4, align 8, !tbaa !831
  %5 = load ptr, ptr %3, align 8
  %6 = getelementptr inbounds nuw %"class.llvm::iterator_adaptor_base.994", ptr %5, i32 0, i32 0
  %7 = load ptr, ptr %4, align 8, !tbaa !831
  store ptr %7, ptr %6, align 8, !tbaa !844
  ret void
}

; Function Attrs: mustprogress nounwind uwtable
define available_externally noundef i64 @_ZNK4llvm15SmallVectorBaseIjE4sizeEv(ptr noundef nonnull align 8 dereferenceable(16) %0) #4 align 2 {
  %2 = alloca ptr, align 8
  store ptr %0, ptr %2, align 8, !tbaa !745
  %3 = load ptr, ptr %2, align 8
  %4 = getelementptr inbounds nuw %"class.llvm::SmallVectorBase", ptr %3, i32 0, i32 1
  %5 = load i32, ptr %4, align 8, !tbaa !747
  %6 = zext i32 %5 to i64
  ret i64 %6
}

; Function Attrs: mustprogress nounwind uwtable
define linkonce_odr hidden void @_ZN4llvm21iterator_adaptor_baseIN5clang24RedeclarableTemplateDecl12SpecIteratorINS1_31ClassTemplateSpecializationDeclENS2_15SpecEntryTraitsIS4_EES4_EENS_16pointee_iteratorIPPS4_S4_EESt26random_access_iterator_tagS9_lS9_S9_EC2ESB_(ptr noundef nonnull align 8 dereferenceable(8) %0, ptr %1) unnamed_addr #4 comdat align 2 {
  %3 = alloca %"struct.llvm::pointee_iterator", align 8
  %4 = alloca ptr, align 8
  %5 = getelementptr inbounds nuw %"struct.llvm::pointee_iterator", ptr %3, i32 0, i32 0
  %6 = getelementptr inbounds nuw %"class.llvm::iterator_adaptor_base.994", ptr %5, i32 0, i32 0
  store ptr %1, ptr %6, align 8
  store ptr %0, ptr %4, align 8, !tbaa !846
  %7 = load ptr, ptr %4, align 8
  %8 = getelementptr inbounds nuw %"class.llvm::iterator_adaptor_base.992", ptr %7, i32 0, i32 0
  call void @llvm.memcpy.p0.p0.i64(ptr align 8 %8, ptr align 8 %3, i64 8, i1 false)
  ret void
}

; Function Attrs: mustprogress nounwind uwtable
define linkonce_odr hidden noundef ptr @_ZN4llvm25SmallVectorTemplateCommonIPN5clang31ClassTemplateSpecializationDeclEvE5beginEv(ptr noundef nonnull align 8 dereferenceable(16) %0) #4 comdat align 2 {
  %2 = alloca ptr, align 8
  store ptr %0, ptr %2, align 8, !tbaa !835
  %3 = load ptr, ptr %2, align 8
  %4 = getelementptr inbounds nuw %"class.llvm::SmallVectorBase", ptr %3, i32 0, i32 0
  %5 = load ptr, ptr %4, align 8, !tbaa !749
  ret ptr %5
}

; Function Attrs: mustprogress uwtable
define linkonce_odr hidden void @_ZN4llvm16pointee_iteratorIPPN5clang31ClassTemplateSpecializationDeclES2_EC2IS4_EEOT_(ptr noundef nonnull align 8 dereferenceable(8) %0, ptr noundef nonnull align 8 dereferenceable(8) %1) unnamed_addr #2 comdat align 2 {
  %3 = alloca ptr, align 8
  %4 = alloca ptr, align 8
  store ptr %0, ptr %3, align 8, !tbaa !837
  store ptr %1, ptr %4, align 8, !tbaa !839
  %5 = load ptr, ptr %3, align 8
  %6 = load ptr, ptr %4, align 8, !tbaa !839
  %7 = load ptr, ptr %6, align 8, !tbaa !831
  call void @_ZN4llvm21iterator_adaptor_baseINS_16pointee_iteratorIPPN5clang31ClassTemplateSpecializationDeclES3_EES5_St26random_access_iterator_tagS3_lS4_RS3_EC2ES5_(ptr noundef nonnull align 8 dereferenceable(8) %5, ptr noundef %7)
  ret void
}

; Function Attrs: mustprogress uwtable
define linkonce_odr hidden noundef ptr @_ZN4llvm25SmallVectorTemplateCommonIPN5clang31ClassTemplateSpecializationDeclEvE3endEv(ptr noundef nonnull align 8 dereferenceable(16) %0) #2 comdat align 2 {
  %2 = alloca ptr, align 8
  store ptr %0, ptr %2, align 8, !tbaa !835
  %3 = load ptr, ptr %2, align 8
  %4 = call noundef ptr @_ZN4llvm25SmallVectorTemplateCommonIPN5clang31ClassTemplateSpecializationDeclEvE5beginEv(ptr noundef nonnull align 8 dereferenceable(16) %3)
  %5 = call noundef i64 @_ZNK4llvm15SmallVectorBaseIjE4sizeEv(ptr noundef nonnull align 8 dereferenceable(16) %3)
  %6 = getelementptr inbounds nuw ptr, ptr %4, i64 %5
  ret ptr %6
}

; Function Attrs: mustprogress uwtable
define linkonce_odr hidden void @_ZN5clang24RedeclarableTemplateDecl12SpecIteratorINS_31ClassTemplateSpecializationDeclENS0_15SpecEntryTraitsIS2_EES2_EC2EN4llvm16pointee_iteratorIPPS2_S2_EE(ptr noundef nonnull align 8 dereferenceable(8) %0, ptr %1) unnamed_addr #2 comdat align 2 {
  %3 = alloca %"struct.llvm::pointee_iterator", align 8
  %4 = alloca ptr, align 8
  %5 = alloca %"struct.llvm::pointee_iterator", align 8
  %6 = getelementptr inbounds nuw %"struct.llvm::pointee_iterator", ptr %3, i32 0, i32 0
  %7 = getelementptr inbounds nuw %"class.llvm::iterator_adaptor_base.994", ptr %6, i32 0, i32 0
  store ptr %1, ptr %7, align 8
  store ptr %0, ptr %4, align 8, !tbaa !833
  %8 = load ptr, ptr %4, align 8
  call void @llvm.memcpy.p0.p0.i64(ptr align 8 %5, ptr align 8 %3, i64 8, i1 false)
  %9 = getelementptr inbounds nuw %"struct.llvm::pointee_iterator", ptr %5, i32 0, i32 0
  %10 = getelementptr inbounds nuw %"class.llvm::iterator_adaptor_base.994", ptr %9, i32 0, i32 0
  %11 = load ptr, ptr %10, align 8
  call void @_ZN4llvm21iterator_adaptor_baseIN5clang24RedeclarableTemplateDecl12SpecIteratorINS1_31ClassTemplateSpecializationDeclENS2_15SpecEntryTraitsIS4_EES4_EENS_16pointee_iteratorIPPS4_S4_EESt26random_access_iterator_tagS9_lS9_S9_EC2ESB_(ptr noundef nonnull align 8 dereferenceable(8) %8, ptr %11)
  ret void
}

; Function Attrs: mustprogress uwtable
define linkonce_odr hidden ptr @_ZN4llvm16FoldingSetVectorIN5clang31ClassTemplateSpecializationDeclENS_11SmallVectorIPS2_Lj8EEEE5beginEv(ptr noundef nonnull align 8 dereferenceable(96) %0) #2 comdat align 2 {
  %2 = alloca %"struct.llvm::pointee_iterator", align 8
  %3 = alloca ptr, align 8
  %4 = alloca ptr, align 8
  store ptr %0, ptr %3, align 8, !tbaa !829
  %5 = load ptr, ptr %3, align 8
  call void @llvm.lifetime.start.p0(i64 8, ptr %4) #21
  %6 = getelementptr inbounds nuw %"class.llvm::FoldingSetVector", ptr %5, i32 0, i32 1
  %7 = call noundef ptr @_ZN4llvm25SmallVectorTemplateCommonIPN5clang31ClassTemplateSpecializationDeclEvE5beginEv(ptr noundef nonnull align 8 dereferenceable(16) %6)
  store ptr %7, ptr %4, align 8, !tbaa !831
  call void @_ZN4llvm16pointee_iteratorIPPN5clang31ClassTemplateSpecializationDeclES2_EC2IS4_EEOT_(ptr noundef nonnull align 8 dereferenceable(8) %2, ptr noundef nonnull align 8 dereferenceable(8) %4)
  call void @llvm.lifetime.end.p0(i64 8, ptr %4) #21
  %8 = getelementptr inbounds nuw %"struct.llvm::pointee_iterator", ptr %2, i32 0, i32 0
  %9 = getelementptr inbounds nuw %"class.llvm::iterator_adaptor_base.994", ptr %8, i32 0, i32 0
  %10 = load ptr, ptr %9, align 8
  ret ptr %10
}

; Function Attrs: mustprogress uwtable
define linkonce_odr hidden ptr @_ZN4llvm16FoldingSetVectorIN5clang31ClassTemplateSpecializationDeclENS_11SmallVectorIPS2_Lj8EEEE3endEv(ptr noundef nonnull align 8 dereferenceable(96) %0) #2 comdat align 2 {
  %2 = alloca %"struct.llvm::pointee_iterator", align 8
  %3 = alloca ptr, align 8
  %4 = alloca ptr, align 8
  store ptr %0, ptr %3, align 8, !tbaa !829
  %5 = load ptr, ptr %3, align 8
  call void @llvm.lifetime.start.p0(i64 8, ptr %4) #21
  %6 = getelementptr inbounds nuw %"class.llvm::FoldingSetVector", ptr %5, i32 0, i32 1
  %7 = call noundef ptr @_ZN4llvm25SmallVectorTemplateCommonIPN5clang31ClassTemplateSpecializationDeclEvE3endEv(ptr noundef nonnull align 8 dereferenceable(16) %6)
  store ptr %7, ptr %4, align 8, !tbaa !831
  call void @_ZN4llvm16pointee_iteratorIPPN5clang31ClassTemplateSpecializationDeclES2_EC2IS4_EEOT_(ptr noundef nonnull align 8 dereferenceable(8) %2, ptr noundef nonnull align 8 dereferenceable(8) %4)
  call void @llvm.lifetime.end.p0(i64 8, ptr %4) #21
  %8 = getelementptr inbounds nuw %"struct.llvm::pointee_iterator", ptr %2, i32 0, i32 0
  %9 = getelementptr inbounds nuw %"class.llvm::iterator_adaptor_base.994", ptr %8, i32 0, i32 0
  %10 = load ptr, ptr %9, align 8
  ret ptr %10
}

; Function Attrs: mustprogress nounwind uwtable
define linkonce_odr hidden noundef zeroext i1 @_ZN4llvmeqERKNS_21iterator_adaptor_baseINS_16pointee_iteratorIPPN5clang31ClassTemplateSpecializationDeclES3_EES5_St26random_access_iterator_tagS3_lS4_RS3_EESB_(ptr noundef nonnull align 8 dereferenceable(8) %0, ptr noundef nonnull align 8 dereferenceable(8) %1) #4 comdat {
  %3 = alloca ptr, align 8
  %4 = alloca ptr, align 8
  store ptr %0, ptr %3, align 8, !tbaa !842
  store ptr %1, ptr %4, align 8, !tbaa !842
  %5 = load ptr, ptr %3, align 8, !tbaa !842
  %6 = getelementptr inbounds nuw %"class.llvm::iterator_adaptor_base.994", ptr %5, i32 0, i32 0
  %7 = load ptr, ptr %6, align 8, !tbaa !844
  %8 = load ptr, ptr %4, align 8, !tbaa !842
  %9 = getelementptr inbounds nuw %"class.llvm::iterator_adaptor_base.994", ptr %8, i32 0, i32 0
  %10 = load ptr, ptr %9, align 8, !tbaa !844
  %11 = icmp eq ptr %7, %10
  ret i1 %11
}

; Function Attrs: mustprogress uwtable
define linkonce_odr hidden ptr @_ZN5clang24RedeclarableTemplateDecl16makeSpecIteratorINS_31ClassTemplateSpecializationDeclEEENS0_12SpecIteratorIT_NS0_15SpecEntryTraitsIS4_EENS6_8DeclTypeEEERN4llvm16FoldingSetVectorIS4_NS9_11SmallVectorIPS4_Lj8EEEEEb(ptr noundef nonnull align 8 dereferenceable(96) %0, i1 noundef zeroext %1) #2 comdat align 2 {
  %3 = alloca %"struct.clang::RedeclarableTemplateDecl::SpecIterator", align 8
  %4 = alloca ptr, align 8
  %5 = alloca i8, align 1
  %6 = alloca %"struct.llvm::pointee_iterator", align 8
  store ptr %0, ptr %4, align 8, !tbaa !829
  %7 = zext i1 %1 to i8
  store i8 %7, ptr %5, align 1, !tbaa !85
  %8 = load i8, ptr %5, align 1, !tbaa !85, !range !92, !noundef !93
  %9 = trunc i8 %8 to i1
  br i1 %9, label %10, label %15

10:                                               ; preds = %2
  %11 = load ptr, ptr %4, align 8, !tbaa !829
  %12 = call ptr @_ZN4llvm16FoldingSetVectorIN5clang31ClassTemplateSpecializationDeclENS_11SmallVectorIPS2_Lj8EEEE3endEv(ptr noundef nonnull align 8 dereferenceable(96) %11)
  %13 = getelementptr inbounds nuw %"struct.llvm::pointee_iterator", ptr %6, i32 0, i32 0
  %14 = getelementptr inbounds nuw %"class.llvm::iterator_adaptor_base.994", ptr %13, i32 0, i32 0
  store ptr %12, ptr %14, align 8
  br label %20

15:                                               ; preds = %2
  %16 = load ptr, ptr %4, align 8, !tbaa !829
  %17 = call ptr @_ZN4llvm16FoldingSetVectorIN5clang31ClassTemplateSpecializationDeclENS_11SmallVectorIPS2_Lj8EEEE5beginEv(ptr noundef nonnull align 8 dereferenceable(96) %16)
  %18 = getelementptr inbounds nuw %"struct.llvm::pointee_iterator", ptr %6, i32 0, i32 0
  %19 = getelementptr inbounds nuw %"class.llvm::iterator_adaptor_base.994", ptr %18, i32 0, i32 0
  store ptr %17, ptr %19, align 8
  br label %20

20:                                               ; preds = %15, %10
  %21 = getelementptr inbounds nuw %"struct.llvm::pointee_iterator", ptr %6, i32 0, i32 0
  %22 = getelementptr inbounds nuw %"class.llvm::iterator_adaptor_base.994", ptr %21, i32 0, i32 0
  %23 = load ptr, ptr %22, align 8
  call void @_ZN5clang24RedeclarableTemplateDecl12SpecIteratorINS_31ClassTemplateSpecializationDeclENS0_15SpecEntryTraitsIS2_EES2_EC2EN4llvm16pointee_iteratorIPPS2_S2_EE(ptr noundef nonnull align 8 dereferenceable(8) %3, ptr %23)
  %24 = getelementptr inbounds nuw %"struct.clang::RedeclarableTemplateDecl::SpecIterator", ptr %3, i32 0, i32 0
  %25 = getelementptr inbounds nuw %"class.llvm::iterator_adaptor_base.992", ptr %24, i32 0, i32 0
  %26 = getelementptr inbounds nuw %"struct.llvm::pointee_iterator", ptr %25, i32 0, i32 0
  %27 = getelementptr inbounds nuw %"class.llvm::iterator_adaptor_base.994", ptr %26, i32 0, i32 0
  %28 = load ptr, ptr %27, align 8
  ret ptr %28
}

; Function Attrs: mustprogress uwtable
define linkonce_odr hidden noundef zeroext i1 @_ZN4llvmeqERKNS_21iterator_adaptor_baseIN5clang24RedeclarableTemplateDecl12SpecIteratorINS1_31ClassTemplateSpecializationDeclENS2_15SpecEntryTraitsIS4_EES4_EENS_16pointee_iteratorIPPS4_S4_EESt26random_access_iterator_tagS9_lS9_S9_EESF_(ptr noundef nonnull align 8 dereferenceable(8) %0, ptr noundef nonnull align 8 dereferenceable(8) %1) #2 comdat {
  %3 = alloca ptr, align 8
  %4 = alloca ptr, align 8
  store ptr %0, ptr %3, align 8, !tbaa !846
  store ptr %1, ptr %4, align 8, !tbaa !846
  %5 = load ptr, ptr %3, align 8, !tbaa !846
  %6 = getelementptr inbounds nuw %"class.llvm::iterator_adaptor_base.992", ptr %5, i32 0, i32 0
  %7 = load ptr, ptr %4, align 8, !tbaa !846
  %8 = getelementptr inbounds nuw %"class.llvm::iterator_adaptor_base.992", ptr %7, i32 0, i32 0
  %9 = call noundef zeroext i1 @_ZN4llvmeqERKNS_21iterator_adaptor_baseINS_16pointee_iteratorIPPN5clang31ClassTemplateSpecializationDeclES3_EES5_St26random_access_iterator_tagS3_lS4_RS3_EESB_(ptr noundef nonnull align 8 dereferenceable(8) %6, ptr noundef nonnull align 8 dereferenceable(8) %8)
  ret i1 %9
}

; Function Attrs: mustprogress nounwind uwtable
define linkonce_odr hidden void @_ZN4llvm14iterator_rangeIN5clang24RedeclarableTemplateDecl12SpecIteratorINS1_31ClassTemplateSpecializationDeclENS2_15SpecEntryTraitsIS4_EES4_EEEC2ES7_S7_(ptr noundef nonnull align 8 dereferenceable(16) %0, ptr %1, ptr %2) unnamed_addr #4 comdat align 2 {
  %4 = alloca %"struct.clang::RedeclarableTemplateDecl::SpecIterator", align 8
  %5 = alloca %"struct.clang::RedeclarableTemplateDecl::SpecIterator", align 8
  %6 = alloca ptr, align 8
  %7 = getelementptr inbounds nuw %"struct.clang::RedeclarableTemplateDecl::SpecIterator", ptr %4, i32 0, i32 0
  %8 = getelementptr inbounds nuw %"class.llvm::iterator_adaptor_base.992", ptr %7, i32 0, i32 0
  %9 = getelementptr inbounds nuw %"struct.llvm::pointee_iterator", ptr %8, i32 0, i32 0
  %10 = getelementptr inbounds nuw %"class.llvm::iterator_adaptor_base.994", ptr %9, i32 0, i32 0
  store ptr %1, ptr %10, align 8
  %11 = getelementptr inbounds nuw %"struct.clang::RedeclarableTemplateDecl::SpecIterator", ptr %5, i32 0, i32 0
  %12 = getelementptr inbounds nuw %"class.llvm::iterator_adaptor_base.992", ptr %11, i32 0, i32 0
  %13 = getelementptr inbounds nuw %"struct.llvm::pointee_iterator", ptr %12, i32 0, i32 0
  %14 = getelementptr inbounds nuw %"class.llvm::iterator_adaptor_base.994", ptr %13, i32 0, i32 0
  store ptr %2, ptr %14, align 8
  store ptr %0, ptr %6, align 8, !tbaa !827
  %15 = load ptr, ptr %6, align 8
  %16 = getelementptr inbounds nuw %"class.llvm::iterator_range.991", ptr %15, i32 0, i32 0
  call void @llvm.memcpy.p0.p0.i64(ptr align 8 %16, ptr align 8 %4, i64 8, i1 false)
  %17 = getelementptr inbounds nuw %"class.llvm::iterator_range.991", ptr %15, i32 0, i32 1
  call void @llvm.memcpy.p0.p0.i64(ptr align 8 %17, ptr align 8 %5, i64 8, i1 false)
  ret void
}

; Function Attrs: mustprogress uwtable
define linkonce_odr hidden ptr @_ZNK5clang17ClassTemplateDecl8spec_endEv(ptr noundef nonnull align 8 dereferenceable(88) %0) #2 comdat align 2 {
  %2 = alloca %"struct.clang::RedeclarableTemplateDecl::SpecIterator", align 8
  %3 = alloca ptr, align 8
  store ptr %0, ptr %3, align 8, !tbaa !824
  %4 = load ptr, ptr %3, align 8
  %5 = call noundef nonnull align 8 dereferenceable(96) ptr @_ZNK5clang17ClassTemplateDecl18getSpecializationsEv(ptr noundef nonnull align 8 dereferenceable(88) %4)
  %6 = call ptr @_ZN5clang24RedeclarableTemplateDecl16makeSpecIteratorINS_31ClassTemplateSpecializationDeclEEENS0_12SpecIteratorIT_NS0_15SpecEntryTraitsIS4_EENS6_8DeclTypeEEERN4llvm16FoldingSetVectorIS4_NS9_11SmallVectorIPS4_Lj8EEEEEb(ptr noundef nonnull align 8 dereferenceable(96) %5, i1 noundef zeroext true)
  %7 = getelementptr inbounds nuw %"struct.clang::RedeclarableTemplateDecl::SpecIterator", ptr %2, i32 0, i32 0
  %8 = getelementptr inbounds nuw %"class.llvm::iterator_adaptor_base.992", ptr %7, i32 0, i32 0
  %9 = getelementptr inbounds nuw %"struct.llvm::pointee_iterator", ptr %8, i32 0, i32 0
  %10 = getelementptr inbounds nuw %"class.llvm::iterator_adaptor_base.994", ptr %9, i32 0, i32 0
  store ptr %6, ptr %10, align 8
  %11 = getelementptr inbounds nuw %"struct.clang::RedeclarableTemplateDecl::SpecIterator", ptr %2, i32 0, i32 0
  %12 = getelementptr inbounds nuw %"class.llvm::iterator_adaptor_base.992", ptr %11, i32 0, i32 0
  %13 = getelementptr inbounds nuw %"struct.llvm::pointee_iterator", ptr %12, i32 0, i32 0
  %14 = getelementptr inbounds nuw %"class.llvm::iterator_adaptor_base.994", ptr %13, i32 0, i32 0
  %15 = load ptr, ptr %14, align 8
  ret ptr %15
}

; Function Attrs: mustprogress uwtable
define linkonce_odr hidden ptr @_ZNK5clang17ClassTemplateDecl10spec_beginEv(ptr noundef nonnull align 8 dereferenceable(88) %0) #2 comdat align 2 {
  %2 = alloca %"struct.clang::RedeclarableTemplateDecl::SpecIterator", align 8
  %3 = alloca ptr, align 8
  store ptr %0, ptr %3, align 8, !tbaa !824
  %4 = load ptr, ptr %3, align 8
  %5 = call noundef nonnull align 8 dereferenceable(96) ptr @_ZNK5clang17ClassTemplateDecl18getSpecializationsEv(ptr noundef nonnull align 8 dereferenceable(88) %4)
  %6 = call ptr @_ZN5clang24RedeclarableTemplateDecl16makeSpecIteratorINS_31ClassTemplateSpecializationDeclEEENS0_12SpecIteratorIT_NS0_15SpecEntryTraitsIS4_EENS6_8DeclTypeEEERN4llvm16FoldingSetVectorIS4_NS9_11SmallVectorIPS4_Lj8EEEEEb(ptr noundef nonnull align 8 dereferenceable(96) %5, i1 noundef zeroext false)
  %7 = getelementptr inbounds nuw %"struct.clang::RedeclarableTemplateDecl::SpecIterator", ptr %2, i32 0, i32 0
  %8 = getelementptr inbounds nuw %"class.llvm::iterator_adaptor_base.992", ptr %7, i32 0, i32 0
  %9 = getelementptr inbounds nuw %"struct.llvm::pointee_iterator", ptr %8, i32 0, i32 0
  %10 = getelementptr inbounds nuw %"class.llvm::iterator_adaptor_base.994", ptr %9, i32 0, i32 0
  store ptr %6, ptr %10, align 8
  %11 = getelementptr inbounds nuw %"struct.clang::RedeclarableTemplateDecl::SpecIterator", ptr %2, i32 0, i32 0
  %12 = getelementptr inbounds nuw %"class.llvm::iterator_adaptor_base.992", ptr %11, i32 0, i32 0
  %13 = getelementptr inbounds nuw %"struct.llvm::pointee_iterator", ptr %12, i32 0, i32 0
  %14 = getelementptr inbounds nuw %"class.llvm::iterator_adaptor_base.994", ptr %13, i32 0, i32 0
  %15 = load ptr, ptr %14, align 8
  ret ptr %15
}

; Function Attrs: mustprogress uwtable
define linkonce_odr hidden noundef zeroext i1 @_ZNK4llvm14iterator_rangeIN5clang24RedeclarableTemplateDecl12SpecIteratorINS1_31ClassTemplateSpecializationDeclENS2_15SpecEntryTraitsIS4_EES4_EEE5emptyEv(ptr noundef nonnull align 8 dereferenceable(16) %0) #2 comdat align 2 {
  %2 = alloca ptr, align 8
  store ptr %0, ptr %2, align 8, !tbaa !827
  %3 = load ptr, ptr %2, align 8
  %4 = getelementptr inbounds nuw %"class.llvm::iterator_range.991", ptr %3, i32 0, i32 0
  %5 = getelementptr inbounds nuw %"class.llvm::iterator_range.991", ptr %3, i32 0, i32 1
  %6 = call noundef zeroext i1 @_ZN4llvmeqERKNS_21iterator_adaptor_baseIN5clang24RedeclarableTemplateDecl12SpecIteratorINS1_31ClassTemplateSpecializationDeclENS2_15SpecEntryTraitsIS4_EES4_EENS_16pointee_iteratorIPPS4_S4_EESt26random_access_iterator_tagS9_lS9_S9_EESF_(ptr noundef nonnull align 8 dereferenceable(8) %4, ptr noundef nonnull align 8 dereferenceable(8) %5)
  ret i1 %6
}

; Function Attrs: mustprogress uwtable
define linkonce_odr hidden { ptr, ptr } @_ZNK5clang17ClassTemplateDecl15specializationsEv(ptr noundef nonnull align 8 dereferenceable(88) %0) #2 comdat align 2 {
  %2 = alloca %"class.llvm::iterator_range.991", align 8
  %3 = alloca ptr, align 8
  %4 = alloca %"struct.clang::RedeclarableTemplateDecl::SpecIterator", align 8
  %5 = alloca %"struct.clang::RedeclarableTemplateDecl::SpecIterator", align 8
  store ptr %0, ptr %3, align 8, !tbaa !824
  %6 = load ptr, ptr %3, align 8
  %7 = call ptr @_ZNK5clang17ClassTemplateDecl10spec_beginEv(ptr noundef nonnull align 8 dereferenceable(88) %6)
  %8 = getelementptr inbounds nuw %"struct.clang::RedeclarableTemplateDecl::SpecIterator", ptr %4, i32 0, i32 0
  %9 = getelementptr inbounds nuw %"class.llvm::iterator_adaptor_base.992", ptr %8, i32 0, i32 0
  %10 = getelementptr inbounds nuw %"struct.llvm::pointee_iterator", ptr %9, i32 0, i32 0
  %11 = getelementptr inbounds nuw %"class.llvm::iterator_adaptor_base.994", ptr %10, i32 0, i32 0
  store ptr %7, ptr %11, align 8
  %12 = call ptr @_ZNK5clang17ClassTemplateDecl8spec_endEv(ptr noundef nonnull align 8 dereferenceable(88) %6)
  %13 = getelementptr inbounds nuw %"struct.clang::RedeclarableTemplateDecl::SpecIterator", ptr %5, i32 0, i32 0
  %14 = getelementptr inbounds nuw %"class.llvm::iterator_adaptor_base.992", ptr %13, i32 0, i32 0
  %15 = getelementptr inbounds nuw %"struct.llvm::pointee_iterator", ptr %14, i32 0, i32 0
  %16 = getelementptr inbounds nuw %"class.llvm::iterator_adaptor_base.994", ptr %15, i32 0, i32 0
  store ptr %12, ptr %16, align 8
  %17 = getelementptr inbounds nuw %"struct.clang::RedeclarableTemplateDecl::SpecIterator", ptr %4, i32 0, i32 0
  %18 = getelementptr inbounds nuw %"class.llvm::iterator_adaptor_base.992", ptr %17, i32 0, i32 0
  %19 = getelementptr inbounds nuw %"struct.llvm::pointee_iterator", ptr %18, i32 0, i32 0
  %20 = getelementptr inbounds nuw %"class.llvm::iterator_adaptor_base.994", ptr %19, i32 0, i32 0
  %21 = load ptr, ptr %20, align 8
  %22 = getelementptr inbounds nuw %"struct.clang::RedeclarableTemplateDecl::SpecIterator", ptr %5, i32 0, i32 0
  %23 = getelementptr inbounds nuw %"class.llvm::iterator_adaptor_base.992", ptr %22, i32 0, i32 0
  %24 = getelementptr inbounds nuw %"struct.llvm::pointee_iterator", ptr %23, i32 0, i32 0
  %25 = getelementptr inbounds nuw %"class.llvm::iterator_adaptor_base.994", ptr %24, i32 0, i32 0
  %26 = load ptr, ptr %25, align 8
  call void @_ZN4llvm14iterator_rangeIN5clang24RedeclarableTemplateDecl12SpecIteratorINS1_31ClassTemplateSpecializationDeclENS2_15SpecEntryTraitsIS4_EES4_EEEC2ES7_S7_(ptr noundef nonnull align 8 dereferenceable(16) %2, ptr %21, ptr %26)
  %27 = load { ptr, ptr }, ptr %2, align 8
  ret { ptr, ptr } %27
}

; Function Attrs: inlinehint mustprogress uwtable
define internal noundef zeroext i1 @_ZNK12_GLOBAL__N_18internal37matcher_hasFullSpecializationsMatcher7matchesERKN5clang17ClassTemplateDeclEPNS2_12ast_matchers8internal14ASTMatchFinderEPNS7_21BoundNodesTreeBuilderE(ptr noundef nonnull align 8 dereferenceable(12) %0, ptr noundef nonnull align 8 dereferenceable(88) %1, ptr noundef %2, ptr noundef %3) unnamed_addr #5 align 2 {
  %5 = alloca ptr, align 8
  %6 = alloca ptr, align 8
  %7 = alloca ptr, align 8
  %8 = alloca ptr, align 8
  %9 = alloca %"class.llvm::iterator_range.991", align 8
  store ptr %0, ptr %5, align 8, !tbaa !822
  store ptr %1, ptr %6, align 8, !tbaa !824
  store ptr %2, ptr %7, align 8, !tbaa !28
  store ptr %3, ptr %8, align 8, !tbaa !30
  call void @llvm.lifetime.start.p0(i64 16, ptr %9) #21
  %10 = load ptr, ptr %6, align 8, !tbaa !824
  %11 = call { ptr, ptr } @_ZNK5clang17ClassTemplateDecl15specializationsEv(ptr noundef nonnull align 8 dereferenceable(88) %10)
  %12 = getelementptr inbounds nuw { ptr, ptr }, ptr %9, i32 0, i32 0
  %13 = extractvalue { ptr, ptr } %11, 0
  store ptr %13, ptr %12, align 8
  %14 = getelementptr inbounds nuw { ptr, ptr }, ptr %9, i32 0, i32 1
  %15 = extractvalue { ptr, ptr } %11, 1
  store ptr %15, ptr %14, align 8
  %16 = call noundef zeroext i1 @_ZNK4llvm14iterator_rangeIN5clang24RedeclarableTemplateDecl12SpecIteratorINS1_31ClassTemplateSpecializationDeclENS2_15SpecEntryTraitsIS4_EES4_EEE5emptyEv(ptr noundef nonnull align 8 dereferenceable(16) %9)
  %17 = xor i1 %16, true
  call void @llvm.lifetime.end.p0(i64 16, ptr %9) #21
  ret i1 %17
}