; Function Attrs: inlinehint mustprogress uwtable
define internal noundef zeroext i1 @_ZNK12_GLOBAL__N_18internal37matcher_hasFullSpecializationsMatcher7matchesERKN5clang17ClassTemplateDeclEPNS2_12ast_matchers8internal14ASTMatchFinderEPNS7_21BoundNodesTreeBuilderE(ptr nonnull readnone align 8 captures(none) %0, ptr noundef nonnull align 8 dereferenceable(88) %1, ptr readnone captures(none) %2, ptr readnone captures(none) %3) unnamed_addr #3 align 2 {
  %5 = tail call noundef nonnull align 8 dereferenceable(96) ptr @_ZNK5clang17ClassTemplateDecl18getSpecializationsEv(ptr noundef nonnull align 8 dereferenceable(88) %1)
  %6 = getelementptr inbounds nuw i8, ptr %5, i64 16
  %7 = load ptr, ptr %6, align 8
  %8 = tail call noundef nonnull align 8 dereferenceable(96) ptr @_ZNK5clang17ClassTemplateDecl18getSpecializationsEv(ptr noundef nonnull align 8 dereferenceable(88) %1)
  %9 = getelementptr inbounds nuw i8, ptr %8, i64 16
  %10 = load ptr, ptr %9, align 8
  %11 = getelementptr inbounds nuw i8, ptr %8, i64 24
  %12 = load i32, ptr %11, align 8
  %13 = zext i32 %12 to i64
  %.sroa.0.0.i.i.i = getelementptr inbounds nuw ptr, ptr %10, i64 %13
  %14 = icmp ne ptr %7, %.sroa.0.0.i.i.i
  ret i1 %14
}